target datalayout = "e-m:e-p270:32:32-p271:32:32-p272:64:64-i64:64-i128:128-f80:128-n8:16:32:64-S128"
target triple = "x86_64-pc-linux-gnu"

%"class.icu_77::ErrorCode" = type <{ ptr, i32, [4 x i8] }>

@_ZN12_GLOBAL__N_122gAvailableLocaleCountsE = internal global [2 x i32] zeroinitializer, align 4
@_ZN12_GLOBAL__N_121gAvailableLocaleNamesE = internal global [2 x ptr] zeroinitializer, align 16
@_ZTVN6icu_779ErrorCodeE = external unnamed_addr constant { [5 x ptr] }, align 8

; Function Attrs: inlinehint mustprogress nounwind uwtable
define internal noundef signext i8 @_ZL9U_FAILURE10UErrorCode(i32 noundef %0) #7 {
  %2 = alloca i32, align 4
  store i32 %0, ptr %2, align 4, !tbaa !31
  %3 = load i32, ptr %2, align 4, !tbaa !31
  %4 = icmp sgt i32 %3, 0
  %5 = zext i1 %4 to i8
  ret i8 %5
}

; Function Attrs: mustprogress uwtable
define linkonce_odr noundef signext i8 @_ZNK6icu_779ErrorCode9isFailureEv(ptr noundef nonnull align 8 dereferenceable(12) %0) #0 comdat align 2 {
  %2 = alloca ptr, align 8
  store ptr %0, ptr %2, align 8, !tbaa !22
  %3 = load ptr, ptr %2, align 8
  %4 = getelementptr inbounds nuw %"class.icu_77::ErrorCode", ptr %3, i32 0, i32 1
  %5 = load i32, ptr %4, align 8, !tbaa !26
  %6 = call noundef signext i8 @_ZL9U_FAILURE10UErrorCode(i32 noundef %5)
  ret i8 %6
}

; Function Attrs: mustprogress nounwind uwtable
define linkonce_odr noundef nonnull align 4 dereferenceable(4) ptr @_ZN6icu_779ErrorCodecvR10UErrorCodeEv(ptr noundef nonnull align 8 dereferenceable(12) %0) #6 comdat align 2 {
  %2 = alloca ptr, align 8
  store ptr %0, ptr %2, align 8, !tbaa !22
  %3 = load ptr, ptr %2, align 8
  %4 = getelementptr inbounds nuw %"class.icu_77::ErrorCode", ptr %3, i32 0, i32 1
  ret ptr %4
}

; Function Attrs: mustprogress nounwind uwtable
define linkonce_odr void @_ZN6icu_779ErrorCodeC2Ev(ptr noundef nonnull align 8 dereferenceable(12) %0) unnamed_addr #6 comdat align 2 {
  %2 = alloca ptr, align 8
  store ptr %0, ptr %2, align 8, !tbaa !22
  %3 = load ptr, ptr %2, align 8
  store ptr getelementptr inbounds inrange(-16, 24) ({ [5 x ptr] }, ptr @_ZTVN6icu_779ErrorCodeE, i32 0, i32 0, i32 2), ptr %3, align 8, !tbaa !24
  %4 = getelementptr inbounds nuw %"class.icu_77::ErrorCode", ptr %3, i32 0, i32 1
  store i32 0, ptr %4, align 8, !tbaa !26
  ret void
}

; Function Attrs: mustprogress uwtable
define ptr @uloc_getAvailable_77(i32 noundef %0) #0 personality ptr @__gxx_personality_v0 {
  %2 = alloca ptr, align 8
  %3 = alloca i32, align 4
  %4 = alloca %"class.icu_77::ErrorCode", align 8
  %5 = alloca ptr, align 8
  %6 = alloca i32, align 4
  %7 = alloca i32, align 4
  store i32 %0, ptr %3, align 4, !tbaa !3
  call void @llvm.lifetime.start.p0(i64 16, ptr %4) #12
  call void @_ZN6icu_779ErrorCodeC2Ev(ptr noundef nonnull align 8 dereferenceable(12) %4)
  %8 = invoke noundef nonnull align 4 dereferenceable(4) ptr @_ZN6icu_779ErrorCodecvR10UErrorCodeEv(ptr noundef nonnull align 8 dereferenceable(12) %4)
          to label %9 unwind label %15

9:                                                ; preds = %1
  invoke void @_ZN12_GLOBAL__N_122_load_installedLocalesER10UErrorCode(ptr noundef nonnull align 4 dereferenceable(4) %8)
          to label %10 unwind label %15

10:                                               ; preds = %9
  %11 = invoke noundef signext i8 @_ZNK6icu_779ErrorCode9isFailureEv(ptr noundef nonnull align 8 dereferenceable(12) %4)
          to label %12 unwind label %15

12:                                               ; preds = %10
  %13 = icmp ne i8 %11, 0
  br i1 %13, label %14, label %19

14:                                               ; preds = %12
  store ptr null, ptr %2, align 8
  store i32 1, ptr %7, align 4
  br label %30

15:                                               ; preds = %10, %9, %1
  %16 = landingpad { ptr, i32 }
          cleanup
  %17 = extractvalue { ptr, i32 } %16, 0
  store ptr %17, ptr %5, align 8
  %18 = extractvalue { ptr, i32 } %16, 1
  store i32 %18, ptr %6, align 4
  call void @_ZN6icu_779ErrorCodeD1Ev(ptr noundef nonnull align 8 dereferenceable(12) %4) #12
  call void @llvm.lifetime.end.p0(i64 16, ptr %4) #12
  br label %32

19:                                               ; preds = %12
  %20 = load i32, ptr %3, align 4, !tbaa !3
  %21 = load i32, ptr @_ZN12_GLOBAL__N_122gAvailableLocaleCountsE, align 4, !tbaa !3
  %22 = icmp sgt i32 %20, %21
  br i1 %22, label %23, label %24

23:                                               ; preds = %19
  store ptr null, ptr %2, align 8
  store i32 1, ptr %7, align 4
  br label %30

24:                                               ; preds = %19
  %25 = load ptr, ptr @_ZN12_GLOBAL__N_121gAvailableLocaleNamesE, align 16, !tbaa !12
  %26 = load i32, ptr %3, align 4, !tbaa !3
  %27 = sext i32 %26 to i64
  %28 = getelementptr inbounds ptr, ptr %25, i64 %27
  %29 = load ptr, ptr %28, align 8, !tbaa !15
  store ptr %29, ptr %2, align 8
  store i32 1, ptr %7, align 4
  br label %30

30:                                               ; preds = %24, %23, %14
  call void @_ZN6icu_779ErrorCodeD1Ev(ptr noundef nonnull align 8 dereferenceable(12) %4) #12
  call void @llvm.lifetime.end.p0(i64 16, ptr %4) #12
  %31 = load ptr, ptr %2, align 8
  ret ptr %31

32:                                               ; preds = %15
  %33 = load ptr, ptr %5, align 8
  %34 = load i32, ptr %6, align 4
  %35 = insertvalue { ptr, i32 } poison, ptr %33, 0
  %36 = insertvalue { ptr, i32 } %35, i32 %34, 1
  resume { ptr, i32 } %36
}