; Function Attrs: mustprogress uwtable
define ptr @uloc_getAvailable_77(i32 noundef %0) local_unnamed_addr #0 personality ptr @__gxx_personality_v0 {
  %2 = alloca %"class.icu_77::ErrorCode", align 8
  call void @llvm.lifetime.start.p0(i64 16, ptr nonnull %2) #14
  store ptr getelementptr inbounds nuw inrange(-16, 24) (i8, ptr @_ZTVN6icu_779ErrorCodeE, i64 16), ptr %2, align 8, !tbaa !3
  %3 = getelementptr inbounds nuw i8, ptr %2, i64 8
  store i32 0, ptr %3, align 8, !tbaa !6
  invoke fastcc void @_ZN12_GLOBAL__N_122_load_installedLocalesER10UErrorCode(ptr noundef nonnull align 4 dereferenceable(4) %3)
          to label %4 unwind label %9

4:                                                ; preds = %1
  %5 = load i32, ptr %3, align 8, !tbaa !6
  %6 = icmp sgt i32 %5, 0
  %7 = load i32, ptr @_ZN12_GLOBAL__N_122gAvailableLocaleCountsE, align 4
  %8 = icmp sgt i32 %0, %7
  %or.cond = select i1 %6, i1 true, i1 %8
  br i1 %or.cond, label %16, label %11

9:                                                ; preds = %1
  %10 = landingpad { ptr, i32 }
          cleanup
  call void @_ZN6icu_779ErrorCodeD1Ev(ptr noundef nonnull align 8 dereferenceable(12) %2) #14
  call void @llvm.lifetime.end.p0(i64 16, ptr nonnull %2) #14
  resume { ptr, i32 } %10

11:                                               ; preds = %4
  %12 = load ptr, ptr @_ZN12_GLOBAL__N_121gAvailableLocaleNamesE, align 16, !tbaa !15
  %13 = sext i32 %0 to i64
  %14 = getelementptr inbounds ptr, ptr %12, i64 %13
  %15 = load ptr, ptr %14, align 8, !tbaa !18
  br label %16

16:                                               ; preds = %4, %11
  %.0 = phi ptr [ %15, %11 ], [ null, %4 ]
  call void @_ZN6icu_779ErrorCodeD1Ev(ptr noundef nonnull align 8 dereferenceable(12) %2) #14
  call void @llvm.lifetime.end.p0(i64 16, ptr nonnull %2) #14
  ret ptr %.0
}